; Function Attrs: nounwind uwtable
define dso_local i32 @sapi_get_target_uid(ptr noundef %0) local_unnamed_addr #0 {
  %2 = load ptr, ptr getelementptr inbounds nuw (i8, ptr @sapi_module, i64 216), align 8, !tbaa !156
  %.not = icmp eq ptr %2, null
  br i1 %.not, label %5, label %3

3:                                                ; preds = %1
  %4 = tail call i32 %2(ptr noundef %0) #19
  br label %5

5:                                                ; preds = %1, %3
  %.0 = phi i32 [ %4, %3 ], [ -1, %1 ]
  ret i32 %.0
}